target datalayout = "e-m:e-p270:32:32-p271:32:32-p272:64:64-i64:64-i128:128-f80:128-n8:16:32:64-S128"
target triple = "x86_64-pc-linux-gnu"

; Function Attrs: nounwind uwtable
define internal void @gxf_write_padding(ptr noundef %0, i64 noundef %1) #0 {
  %3 = alloca ptr, align 8
  %4 = alloca i64, align 8
  store ptr %0, ptr %3, align 8, !tbaa !26
  store i64 %1, ptr %4, align 8, !tbaa !94
  %5 = load ptr, ptr %3, align 8, !tbaa !26
  %6 = load i64, ptr %4, align 8, !tbaa !94
  call void @ffio_fill(ptr noundef %5, i32 noundef 0, i64 noundef %6)
  ret void
}

; Function Attrs: alwaysinline nounwind uwtable
define internal i64 @avio_tell(ptr noundef %0) #6 {
  %2 = alloca ptr, align 8
  store ptr %0, ptr %2, align 8, !tbaa !26
  %3 = load ptr, ptr %2, align 8, !tbaa !26
  %4 = call i64 @avio_seek(ptr noundef %3, i64 noundef 0, i32 noundef 1)
  ret i64 %4
}

; Function Attrs: nounwind uwtable
define internal i64 @update_packet_size(ptr noundef %0, i64 noundef %1) #0 {
  %3 = alloca ptr, align 8
  %4 = alloca i64, align 8
  %5 = alloca i64, align 8
  %6 = alloca i32, align 4
  store ptr %0, ptr %3, align 8, !tbaa !26
  store i64 %1, ptr %4, align 8, !tbaa !94
  call void @llvm.lifetime.start.p0(i64 8, ptr %5) #10
  call void @llvm.lifetime.start.p0(i64 4, ptr %6) #10
  %7 = load ptr, ptr %3, align 8, !tbaa !26
  %8 = call i64 @avio_tell(ptr noundef %7)
  %9 = load i64, ptr %4, align 8, !tbaa !94
  %10 = sub nsw i64 %8, %9
  %11 = trunc i64 %10 to i32
  store i32 %11, ptr %6, align 4, !tbaa !32
  %12 = load i32, ptr %6, align 4, !tbaa !32
  %13 = srem i32 %12, 4
  %14 = icmp ne i32 %13, 0
  br i1 %14, label %15, label %26

15:                                               ; preds = %2
  %16 = load ptr, ptr %3, align 8, !tbaa !26
  %17 = load i32, ptr %6, align 4, !tbaa !32
  %18 = srem i32 %17, 4
  %19 = sub nsw i32 4, %18
  %20 = sext i32 %19 to i64
  call void @gxf_write_padding(ptr noundef %16, i64 noundef %20)
  %21 = load ptr, ptr %3, align 8, !tbaa !26
  %22 = call i64 @avio_tell(ptr noundef %21)
  %23 = load i64, ptr %4, align 8, !tbaa !94
  %24 = sub nsw i64 %22, %23
  %25 = trunc i64 %24 to i32
  store i32 %25, ptr %6, align 4, !tbaa !32
  br label %26

26:                                               ; preds = %15, %2
  %27 = load ptr, ptr %3, align 8, !tbaa !26
  %28 = call i64 @avio_tell(ptr noundef %27)
  store i64 %28, ptr %5, align 8, !tbaa !94
  %29 = load ptr, ptr %3, align 8, !tbaa !26
  %30 = load i64, ptr %4, align 8, !tbaa !94
  %31 = add nsw i64 %30, 6
  %32 = call i64 @avio_seek(ptr noundef %29, i64 noundef %31, i32 noundef 0)
  %33 = load ptr, ptr %3, align 8, !tbaa !26
  %34 = load i32, ptr %6, align 4, !tbaa !32
  call void @avio_wb32(ptr noundef %33, i32 noundef %34)
  %35 = load ptr, ptr %3, align 8, !tbaa !26
  %36 = load i64, ptr %5, align 8, !tbaa !94
  %37 = call i64 @avio_seek(ptr noundef %35, i64 noundef %36, i32 noundef 0)
  %38 = load i64, ptr %5, align 8, !tbaa !94
  %39 = load i64, ptr %4, align 8, !tbaa !94
  %40 = sub nsw i64 %38, %39
  call void @llvm.lifetime.end.p0(i64 4, ptr %6) #10
  call void @llvm.lifetime.end.p0(i64 8, ptr %5) #10
  ret i64 %40
}