; Function Attrs: nounwind uwtable
define internal fastcc i64 @update_packet_size(ptr noundef %0, i64 noundef %1) unnamed_addr #0 {
  %3 = tail call i64 @avio_seek(ptr noundef %0, i64 noundef 0, i32 noundef 1) #10
  %4 = sub nsw i64 %3, %1
  %5 = trunc i64 %4 to i32
  %6 = srem i32 %5, 4
  %.not = icmp eq i32 %6, 0
  br i1 %.not, label %13, label %7

7:                                                ; preds = %2
  %8 = sub nsw i32 4, %6
  %9 = zext nneg i32 %8 to i64
  tail call void @ffio_fill(ptr noundef %0, i32 noundef 0, i64 noundef range(i64 -2147418111, 2147483648) %9) #10
  %10 = tail call i64 @avio_seek(ptr noundef %0, i64 noundef 0, i32 noundef 1) #10
  %11 = sub nsw i64 %10, %1
  %12 = trunc i64 %11 to i32
  br label %13

13:                                               ; preds = %7, %2
  %.0 = phi i32 [ %12, %7 ], [ %5, %2 ]
  %14 = tail call i64 @avio_seek(ptr noundef %0, i64 noundef 0, i32 noundef 1) #10
  %15 = add nsw i64 %1, 6
  %16 = tail call i64 @avio_seek(ptr noundef %0, i64 noundef %15, i32 noundef 0) #10
  tail call void @avio_wb32(ptr noundef %0, i32 noundef %.0) #10
  %17 = tail call i64 @avio_seek(ptr noundef %0, i64 noundef %14, i32 noundef 0) #10
  %18 = sub nsw i64 %14, %1
  ret i64 %18
}